target datalayout = "e-m:e-p270:32:32-p271:32:32-p272:64:64-i64:64-i128:128-f80:128-n8:16:32:64-S128"
target triple = "x86_64-pc-linux-gnu"

%struct.Aig_Obj_t_ = type { %union.anon, ptr, ptr, i64, i32, i32, %union.anon.0 }
%union.anon = type { ptr }
%union.anon.0 = type { ptr }
%struct.Fra_Sml_t_ = type { ptr, i32, i32, i32, i32, i32, i32, i32, i32, [0 x i32] }
%struct.Aig_Man_t_ = type { ptr, ptr, ptr, ptr, ptr, ptr, ptr, %struct.Aig_Obj_t_, i32, i32, i32, i32, i32, i32, [7 x i32], i32, ptr, i32, ptr, i32, ptr, i32, i32, i32, ptr, i32, i32, i32, i32, i32, ptr, ptr, i32, ptr, ptr, i32, ptr, ptr, i32, i32, i32, ptr, ptr, ptr, ptr, ptr, ptr, ptr, ptr, ptr, ptr, ptr, ptr, ptr, ptr, i32, ptr, ptr, ptr, ptr, i32, i64, i64, i64, ptr, ptr }
%struct.Vec_Ptr_t_ = type { i32, i32, ptr }

; Function Attrs: inlinehint nounwind uwtable
define internal i32 @Vec_PtrSize(ptr noundef %0) #2 {
  %2 = alloca ptr, align 8
  store ptr %0, ptr %2, align 8, !tbaa !54
  %3 = load ptr, ptr %2, align 8, !tbaa !54
  %4 = getelementptr inbounds nuw %struct.Vec_Ptr_t_, ptr %3, i32 0, i32 1
  %5 = load i32, ptr %4, align 4, !tbaa !55
  ret i32 %5
}

; Function Attrs: inlinehint nounwind uwtable
define internal i32 @Aig_ManObjNumMax(ptr noundef %0) #2 {
  %2 = alloca ptr, align 8
  store ptr %0, ptr %2, align 8, !tbaa !52
  %3 = load ptr, ptr %2, align 8, !tbaa !52
  %4 = getelementptr inbounds nuw %struct.Aig_Man_t_, ptr %3, i32 0, i32 4
  %5 = load ptr, ptr %4, align 8, !tbaa !120
  %6 = call i32 @Vec_PtrSize(ptr noundef %5)
  ret i32 %6
}

; Function Attrs: nounwind uwtable
define ptr @Fra_SmlStart(ptr noundef %0, i32 noundef %1, i32 noundef %2, i32 noundef %3) #0 {
  %5 = alloca ptr, align 8
  %6 = alloca i32, align 4
  %7 = alloca i32, align 4
  %8 = alloca i32, align 4
  %9 = alloca ptr, align 8
  store ptr %0, ptr %5, align 8, !tbaa !52
  store i32 %1, ptr %6, align 4, !tbaa !8
  store i32 %2, ptr %7, align 4, !tbaa !8
  store i32 %3, ptr %8, align 4, !tbaa !8
  call void @llvm.lifetime.start.p0(i64 8, ptr %9) #8
  %10 = load ptr, ptr %5, align 8, !tbaa !52
  %11 = call i32 @Aig_ManObjNumMax(ptr noundef %10)
  %12 = sext i32 %11 to i64
  %13 = mul i64 4, %12
  %14 = load i32, ptr %6, align 4, !tbaa !8
  %15 = load i32, ptr %7, align 4, !tbaa !8
  %16 = add nsw i32 %14, %15
  %17 = sext i32 %16 to i64
  %18 = mul i64 %13, %17
  %19 = load i32, ptr %8, align 4, !tbaa !8
  %20 = sext i32 %19 to i64
  %21 = mul i64 %18, %20
  %22 = add i64 40, %21
  %23 = mul i64 1, %22
  %24 = call noalias ptr @malloc(i64 noundef %23) #9
  store ptr %24, ptr %9, align 8, !tbaa !35
  %25 = load ptr, ptr %9, align 8, !tbaa !35
  %26 = load i32, ptr %6, align 4, !tbaa !8
  %27 = load i32, ptr %7, align 4, !tbaa !8
  %28 = add nsw i32 %26, %27
  %29 = sext i32 %28 to i64
  %30 = mul i64 4, %29
  %31 = load i32, ptr %8, align 4, !tbaa !8
  %32 = sext i32 %31 to i64
  %33 = mul i64 %30, %32
  %34 = add i64 40, %33
  call void @llvm.memset.p0.i64(ptr align 8 %25, i8 0, i64 %34, i1 false)
  %35 = load ptr, ptr %5, align 8, !tbaa !52
  %36 = load ptr, ptr %9, align 8, !tbaa !35
  %37 = getelementptr inbounds nuw %struct.Fra_Sml_t_, ptr %36, i32 0, i32 0
  store ptr %35, ptr %37, align 8, !tbaa !94
  %38 = load i32, ptr %6, align 4, !tbaa !8
  %39 = load ptr, ptr %9, align 8, !tbaa !35
  %40 = getelementptr inbounds nuw %struct.Fra_Sml_t_, ptr %39, i32 0, i32 1
  store i32 %38, ptr %40, align 8, !tbaa !141
  %41 = load i32, ptr %6, align 4, !tbaa !8
  %42 = load i32, ptr %7, align 4, !tbaa !8
  %43 = add nsw i32 %41, %42
  %44 = load ptr, ptr %9, align 8, !tbaa !35
  %45 = getelementptr inbounds nuw %struct.Fra_Sml_t_, ptr %44, i32 0, i32 2
  store i32 %43, ptr %45, align 4, !tbaa !98
  %46 = load i32, ptr %8, align 4, !tbaa !8
  %47 = load ptr, ptr %9, align 8, !tbaa !35
  %48 = getelementptr inbounds nuw %struct.Fra_Sml_t_, ptr %47, i32 0, i32 3
  store i32 %46, ptr %48, align 8, !tbaa !92
  %49 = load i32, ptr %6, align 4, !tbaa !8
  %50 = load i32, ptr %7, align 4, !tbaa !8
  %51 = add nsw i32 %49, %50
  %52 = load i32, ptr %8, align 4, !tbaa !8
  %53 = mul nsw i32 %51, %52
  %54 = load ptr, ptr %9, align 8, !tbaa !35
  %55 = getelementptr inbounds nuw %struct.Fra_Sml_t_, ptr %54, i32 0, i32 4
  store i32 %53, ptr %55, align 4, !tbaa !32
  %56 = load i32, ptr %6, align 4, !tbaa !8
  %57 = load i32, ptr %8, align 4, !tbaa !8
  %58 = mul nsw i32 %56, %57
  %59 = load ptr, ptr %9, align 8, !tbaa !35
  %60 = getelementptr inbounds nuw %struct.Fra_Sml_t_, ptr %59, i32 0, i32 5
  store i32 %58, ptr %60, align 8, !tbaa !30
  %61 = load ptr, ptr %9, align 8, !tbaa !35
  call void @llvm.lifetime.end.p0(i64 8, ptr %9) #8
  ret ptr %61
}