; Function Attrs: mustprogress nofree nounwind willreturn memory(readwrite, argmem: read) uwtable
define noalias noundef ptr @Fra_SmlStart(ptr noundef %0, i32 noundef %1, i32 noundef %2, i32 noundef %3) local_unnamed_addr #13 {
  %5 = getelementptr i8, ptr %0, i64 32
  %.val = load ptr, ptr %5, align 8, !tbaa !113
  %6 = getelementptr i8, ptr %.val, i64 4
  %.val.val = load i32, ptr %6, align 4, !tbaa !46
  %7 = sext i32 %.val.val to i64
  %8 = add nsw i32 %2, %1
  %9 = sext i32 %8 to i64
  %10 = sext i32 %3 to i64
  %11 = shl nsw i64 %9, 2
  %12 = mul i64 %11, %10
  %13 = mul i64 %12, %7
  %14 = add i64 %13, 40
  %15 = tail call noalias ptr @malloc(i64 noundef %14) #21
  %16 = add i64 %12, 40
  tail call void @llvm.memset.p0.i64(ptr align 8 %15, i8 0, i64 %16, i1 false)
  store ptr %0, ptr %15, align 8, !tbaa !85
  %17 = getelementptr inbounds nuw i8, ptr %15, i64 8
  store i32 %1, ptr %17, align 8, !tbaa !134
  %18 = getelementptr inbounds nuw i8, ptr %15, i64 12
  store i32 %8, ptr %18, align 4, !tbaa !90
  %19 = getelementptr inbounds nuw i8, ptr %15, i64 16
  store i32 %3, ptr %19, align 8, !tbaa !83
  %20 = mul nsw i32 %8, %3
  %21 = getelementptr inbounds nuw i8, ptr %15, i64 20
  store i32 %20, ptr %21, align 4, !tbaa !25
  %22 = mul nsw i32 %3, %1
  %23 = getelementptr inbounds nuw i8, ptr %15, i64 24
  store i32 %22, ptr %23, align 8, !tbaa !27
  ret ptr %15
}